; Function Attrs: nounwind uwtable
define void @Cba_BlastDivider2(ptr noundef %0, ptr noundef readonly captures(none) %1, i32 noundef %2, ptr noundef readonly captures(none) %3, i32 noundef %4, i32 noundef %5, ptr noundef captures(none) %6) local_unnamed_addr #0 {
  %8 = getelementptr i8, ptr %6, i64 8
  %.val = load ptr, ptr %8, align 8
  %9 = sext i32 %2 to i64
  %10 = shl nsw i64 %9, 2
  %11 = tail call noalias ptr @malloc(i64 noundef %10) #19
  %12 = add nsw i32 %4, %2
  %13 = icmp sgt i32 %12, 0
  br i1 %13, label %.lr.ph.preheader, label %._crit_edge

.lr.ph.preheader:                                 ; preds = %7
  %wide.trip.count = zext nneg i32 %12 to i64
  br label %.lr.ph

.lr.ph:                                           ; preds = %.lr.ph.preheader, %18
  %indvars.iv = phi i64 [ 0, %.lr.ph.preheader ], [ %indvars.iv.next, %18 ]
  %14 = icmp slt i64 %indvars.iv, %9
  br i1 %14, label %15, label %18

15:                                               ; preds = %.lr.ph
  %16 = getelementptr inbounds nuw i32, ptr %1, i64 %indvars.iv
  %17 = load i32, ptr %16, align 4
  br label %18

18:                                               ; preds = %.lr.ph, %15
  %19 = phi i32 [ %17, %15 ], [ 0, %.lr.ph ]
  %20 = getelementptr inbounds nuw i32, ptr %.val, i64 %indvars.iv
  store i32 %19, ptr %20, align 4
  %indvars.iv.next = add nuw nsw i64 %indvars.iv, 1
  %exitcond.not = icmp eq i64 %indvars.iv.next, %wide.trip.count
  br i1 %exitcond.not, label %._crit_edge, label %.lr.ph, !llvm.loop !40

._crit_edge:                                      ; preds = %18, %7
  %21 = add nsw i32 %2, -1
  %22 = icmp sgt i32 %2, 0
  br i1 %22, label %.lr.ph81, label %._crit_edge82

.lr.ph81:                                         ; preds = %._crit_edge
  %.not6773 = icmp slt i32 %4, 0
  br i1 %.not6773, label %.lr.ph81.split.us.preheader, label %.lr.ph81.split.preheader

.lr.ph81.split.preheader:                         ; preds = %.lr.ph81
  %23 = zext nneg i32 %4 to i64
  %24 = add nuw i32 %4, 1
  %25 = zext nneg i32 %21 to i64
  %wide.trip.count92 = zext i32 %24 to i64
  %invariant.gep107 = getelementptr i32, ptr %.val, i64 %23
  br label %.lr.ph81.split

.lr.ph81.split.us.preheader:                      ; preds = %.lr.ph81
  %26 = sext i32 %4 to i64
  %invariant.gep109 = getelementptr i32, ptr %.val, i64 %26
  br label %.lr.ph81.split.us

.lr.ph81.split.us:                                ; preds = %.lr.ph81.split.us.preheader, %.lr.ph81.split.us
  %indvars.iv97.in = phi i64 [ %9, %.lr.ph81.split.us.preheader ], [ %indvars.iv97, %.lr.ph81.split.us ]
  %indvars.iv97 = add nsw i64 %indvars.iv97.in, -1
  %gep110 = getelementptr i32, ptr %invariant.gep109, i64 %indvars.iv97
  %27 = load i32, ptr %gep110, align 4
  %28 = xor i32 %27, 1
  %29 = getelementptr inbounds nuw i32, ptr %11, i64 %indvars.iv97
  store i32 %28, ptr %29, align 4
  %30 = icmp sgt i64 %indvars.iv97.in, 1
  br i1 %30, label %.lr.ph81.split.us, label %._crit_edge82, !llvm.loop !41

.lr.ph81.split:                                   ; preds = %.lr.ph81.split.preheader, %._crit_edge78
  %indvars.iv94.in = phi i64 [ %9, %.lr.ph81.split.preheader ], [ %indvars.iv94, %._crit_edge78 ]
  %indvars.iv94 = add nsw i64 %indvars.iv94.in, -1
  %31 = icmp eq i64 %indvars.iv94, %25
  br i1 %31, label %.lr.ph77, label %32

32:                                               ; preds = %.lr.ph81.split
  %gep = getelementptr i32, ptr %11, i64 %indvars.iv94.in
  %33 = load i32, ptr %gep, align 4
  br label %.lr.ph77

.lr.ph77:                                         ; preds = %.lr.ph81.split, %32
  %34 = phi i32 [ %33, %32 ], [ 1, %.lr.ph81.split ]
  %invariant.gep = getelementptr i32, ptr %.val, i64 %indvars.iv94
  br label %35

35:                                               ; preds = %.lr.ph77, %40
  %indvars.iv89 = phi i64 [ 0, %.lr.ph77 ], [ %indvars.iv.next90, %40 ]
  %.07074 = phi i32 [ %34, %.lr.ph77 ], [ %55, %40 ]
  %36 = icmp samesign ult i64 %indvars.iv89, %23
  br i1 %36, label %37, label %40

37:                                               ; preds = %35
  %38 = getelementptr inbounds nuw i32, ptr %3, i64 %indvars.iv89
  %39 = load i32, ptr %38, align 4
  br label %40

40:                                               ; preds = %35, %37
  %41 = phi i32 [ %39, %37 ], [ 0, %35 ]
  %gep106 = getelementptr i32, ptr %invariant.gep, i64 %indvars.iv89
  %42 = load i32, ptr %gep106, align 4
  %43 = tail call i32 @Gia_ManHashXor(ptr noundef %0, i32 noundef %41, i32 noundef %34) #20
  %44 = tail call i32 @Gia_ManHashAnd(ptr noundef %0, i32 noundef %43, i32 noundef %42) #20
  %45 = xor i32 %43, 1
  %46 = xor i32 %42, 1
  %47 = tail call i32 @Gia_ManHashAnd(ptr noundef %0, i32 noundef %45, i32 noundef %46) #20
  %48 = tail call i32 @Gia_ManHashOr(ptr noundef %0, i32 noundef %44, i32 noundef %47) #20
  %49 = xor i32 %48, 1
  %50 = tail call i32 @Gia_ManHashAnd(ptr noundef %0, i32 noundef %.07074, i32 noundef %49) #20
  %51 = xor i32 %.07074, 1
  %52 = tail call i32 @Gia_ManHashAnd(ptr noundef %0, i32 noundef %51, i32 noundef %48) #20
  %53 = tail call i32 @Gia_ManHashOr(ptr noundef %0, i32 noundef %50, i32 noundef %52) #20
  %54 = xor i32 %53, 1
  store i32 %54, ptr %gep106, align 4
  %55 = tail call i32 @Gia_ManHashOr(ptr noundef %0, i32 noundef %44, i32 noundef %50) #20
  %indvars.iv.next90 = add nuw nsw i64 %indvars.iv89, 1
  %exitcond93.not = icmp eq i64 %indvars.iv.next90, %wide.trip.count92
  br i1 %exitcond93.not, label %._crit_edge78, label %35, !llvm.loop !42

._crit_edge78:                                    ; preds = %40
  %gep108 = getelementptr i32, ptr %invariant.gep107, i64 %indvars.iv94
  %56 = load i32, ptr %gep108, align 4
  %57 = xor i32 %56, 1
  %58 = getelementptr inbounds nuw i32, ptr %11, i64 %indvars.iv94
  store i32 %57, ptr %58, align 4
  %59 = icmp sgt i64 %indvars.iv94.in, 1
  br i1 %59, label %.lr.ph81.split, label %._crit_edge82, !llvm.loop !41

._crit_edge82:                                    ; preds = %._crit_edge78, %.lr.ph81.split.us, %._crit_edge
  %.not = icmp eq i32 %5, 0
  br i1 %.not, label %.preheader, label %61

.preheader:                                       ; preds = %._crit_edge82
  %60 = icmp sgt i32 %4, 0
  br i1 %60, label %.lr.ph85.preheader, label %._crit_edge86

.lr.ph85.preheader:                               ; preds = %.preheader
  %wide.trip.count103 = zext nneg i32 %4 to i64
  br label %.lr.ph85

61:                                               ; preds = %._crit_edge82
  %62 = tail call ptr @Cba_VecCopy(ptr noundef %6, ptr noundef %11, i32 noundef %2)
  br label %83

.lr.ph85:                                         ; preds = %.lr.ph85.preheader, %.lr.ph85
  %indvars.iv100 = phi i64 [ 0, %.lr.ph85.preheader ], [ %indvars.iv.next101, %.lr.ph85 ]
  %.07183 = phi i32 [ 0, %.lr.ph85.preheader ], [ %78, %.lr.ph85 ]
  %63 = getelementptr inbounds nuw i32, ptr %3, i64 %indvars.iv100
  %64 = load i32, ptr %63, align 4
  %65 = getelementptr inbounds nuw i32, ptr %.val, i64 %indvars.iv100
  %66 = load i32, ptr %65, align 4
  %67 = tail call i32 @Gia_ManHashAnd(ptr noundef %0, i32 noundef %64, i32 noundef %66) #20
  %68 = xor i32 %64, 1
  %69 = xor i32 %66, 1
  %70 = tail call i32 @Gia_ManHashAnd(ptr noundef %0, i32 noundef %68, i32 noundef %69) #20
  %71 = tail call i32 @Gia_ManHashOr(ptr noundef %0, i32 noundef %67, i32 noundef %70) #20
  %72 = xor i32 %71, 1
  %73 = tail call i32 @Gia_ManHashAnd(ptr noundef %0, i32 noundef %.07183, i32 noundef %72) #20
  %74 = xor i32 %.07183, 1
  %75 = tail call i32 @Gia_ManHashAnd(ptr noundef %0, i32 noundef %74, i32 noundef %71) #20
  %76 = tail call i32 @Gia_ManHashOr(ptr noundef %0, i32 noundef %73, i32 noundef %75) #20
  %77 = xor i32 %76, 1
  %78 = tail call i32 @Gia_ManHashOr(ptr noundef %0, i32 noundef %67, i32 noundef %73) #20
  %79 = load i32, ptr %11, align 4
  %80 = load i32, ptr %65, align 4
  %81 = tail call i32 @Gia_ManHashMux(ptr noundef %0, i32 noundef %79, i32 noundef %80, i32 noundef %77) #20
  store i32 %81, ptr %65, align 4
  %indvars.iv.next101 = add nuw nsw i64 %indvars.iv100, 1
  %exitcond104.not = icmp eq i64 %indvars.iv.next101, %wide.trip.count103
  br i1 %exitcond104.not, label %._crit_edge86, label %.lr.ph85, !llvm.loop !43

._crit_edge86:                                    ; preds = %.lr.ph85, %.preheader
  %82 = getelementptr inbounds nuw i8, ptr %6, i64 4
  store i32 %4, ptr %82, align 4
  br label %83

83:                                               ; preds = %._crit_edge86, %61
  %.not66 = icmp eq ptr %11, null
  br i1 %.not66, label %85, label %84

84:                                               ; preds = %83
  tail call void @free(ptr noundef nonnull %11) #20
  br label %85

85:                                               ; preds = %83, %84
  ret void
}